target datalayout = "e-m:e-p270:32:32-p271:32:32-p272:64:64-i64:64-i128:128-f80:128-n8:16:32:64-S128"
target triple = "x86_64-pc-linux-gnu"

%struct.AVFilterContext = type { ptr, ptr, ptr, ptr, ptr, i32, ptr, ptr, i32, ptr, ptr, i32, i32, ptr, ptr, ptr, ptr, i32, ptr, i32, i32 }
%struct.XFadeContext = type { ptr, i32, i64, i64, ptr, i32, i32, i32, i64, i64, i64, i64, i32, [2 x i32], [2 x ptr], i32, [4 x i16], [4 x i16], ptr, ptr }
%struct.AVRational = type { i32, i32 }
%struct.AVFrame = type { [8 x ptr], [8 x i32], ptr, i32, i32, i32, i32, i32, %struct.AVRational, i64, i64, %struct.AVRational, i32, ptr, i32, i32, [8 x ptr], ptr, i32, ptr, i32, i32, i32, i32, i32, i32, i32, i64, ptr, i32, ptr, ptr, i64, i64, i64, i64, ptr, %struct.AVChannelLayout, i64 }
%struct.AVChannelLayout = type { i32, i32, %union.anon.1, ptr }
%union.anon.1 = type { i64 }

; Function Attrs: alwaysinline nounwind willreturn memory(none) uwtable
define internal float @av_clipf_c(float noundef %0, float noundef %1, float noundef %2) #8 {
  %4 = alloca float, align 4
  %5 = alloca float, align 4
  %6 = alloca float, align 4
  store float %0, ptr %4, align 4, !tbaa !90
  store float %1, ptr %5, align 4, !tbaa !90
  store float %2, ptr %6, align 4, !tbaa !90
  %7 = load float, ptr %4, align 4, !tbaa !90
  %8 = load float, ptr %5, align 4, !tbaa !90
  %9 = fcmp nsz ogt float %7, %8
  br i1 %9, label %10, label %12

10:                                               ; preds = %3
  %11 = load float, ptr %4, align 4, !tbaa !90
  br label %14

12:                                               ; preds = %3
  %13 = load float, ptr %5, align 4, !tbaa !90
  br label %14

14:                                               ; preds = %12, %10
  %15 = phi nsz float [ %11, %10 ], [ %13, %12 ]
  %16 = load float, ptr %6, align 4, !tbaa !90
  %17 = fcmp nsz ogt float %15, %16
  br i1 %17, label %18, label %20

18:                                               ; preds = %14
  %19 = load float, ptr %6, align 4, !tbaa !90
  br label %30

20:                                               ; preds = %14
  %21 = load float, ptr %4, align 4, !tbaa !90
  %22 = load float, ptr %5, align 4, !tbaa !90
  %23 = fcmp nsz ogt float %21, %22
  br i1 %23, label %24, label %26

24:                                               ; preds = %20
  %25 = load float, ptr %4, align 4, !tbaa !90
  br label %28

26:                                               ; preds = %20
  %27 = load float, ptr %5, align 4, !tbaa !90
  br label %28

28:                                               ; preds = %26, %24
  %29 = phi nsz float [ %25, %24 ], [ %27, %26 ]
  br label %30

30:                                               ; preds = %28, %18
  %31 = phi nsz float [ %19, %18 ], [ %29, %28 ]
  ret float %31
}

; Function Attrs: inlinehint nounwind uwtable
define internal float @mix(float noundef %0, float noundef %1, float noundef %2) #4 {
  %4 = alloca float, align 4
  %5 = alloca float, align 4
  %6 = alloca float, align 4
  store float %0, ptr %4, align 4, !tbaa !90
  store float %1, ptr %5, align 4, !tbaa !90
  store float %2, ptr %6, align 4, !tbaa !90
  %7 = load float, ptr %4, align 4, !tbaa !90
  %8 = load float, ptr %6, align 4, !tbaa !90
  %9 = load float, ptr %5, align 4, !tbaa !90
  %10 = load float, ptr %6, align 4, !tbaa !90
  %11 = fsub nsz float 1.000000e+00, %10
  %12 = fmul nsz float %9, %11
  %13 = call nsz float @llvm.fmuladd.f32(float %7, float %8, float %12)
  ret float %13
}

; Function Attrs: inlinehint nounwind uwtable
define internal float @smoothstep(float noundef %0, float noundef %1, float noundef %2) #4 {
  %4 = alloca float, align 4
  %5 = alloca float, align 4
  %6 = alloca float, align 4
  %7 = alloca float, align 4
  store float %0, ptr %4, align 4, !tbaa !90
  store float %1, ptr %5, align 4, !tbaa !90
  store float %2, ptr %6, align 4, !tbaa !90
  call void @llvm.lifetime.start.p0(i64 4, ptr %7) #10
  %8 = load float, ptr %6, align 4, !tbaa !90
  %9 = load float, ptr %4, align 4, !tbaa !90
  %10 = fsub nsz float %8, %9
  %11 = load float, ptr %5, align 4, !tbaa !90
  %12 = load float, ptr %4, align 4, !tbaa !90
  %13 = fsub nsz float %11, %12
  %14 = fdiv nsz float %10, %13
  %15 = call nsz float @av_clipf_c(float noundef %14, float noundef 0.000000e+00, float noundef 1.000000e+00) #11
  store float %15, ptr %7, align 4, !tbaa !90
  %16 = load float, ptr %7, align 4, !tbaa !90
  %17 = load float, ptr %7, align 4, !tbaa !90
  %18 = fmul nsz float %16, %17
  %19 = load float, ptr %7, align 4, !tbaa !90
  %20 = call nsz float @llvm.fmuladd.f32(float -2.000000e+00, float %19, float 3.000000e+00)
  %21 = fmul nsz float %18, %20
  call void @llvm.lifetime.end.p0(i64 4, ptr %7) #10
  ret float %21
}

; Function Attrs: nounwind uwtable
define internal void @diagbr8_transition(ptr noundef %0, ptr noundef %1, ptr noundef %2, ptr noundef %3, float noundef %4, i32 noundef %5, i32 noundef %6, i32 noundef %7) #1 {
  %9 = alloca ptr, align 8
  %10 = alloca ptr, align 8
  %11 = alloca ptr, align 8
  %12 = alloca ptr, align 8
  %13 = alloca float, align 4
  %14 = alloca i32, align 4
  %15 = alloca i32, align 4
  %16 = alloca i32, align 4
  %17 = alloca ptr, align 8
  %18 = alloca i32, align 4
  %19 = alloca i32, align 4
  %20 = alloca float, align 4
  %21 = alloca float, align 4
  %22 = alloca i32, align 4
  %23 = alloca i32, align 4
  %24 = alloca i32, align 4
  %25 = alloca float, align 4
  %26 = alloca i32, align 4
  %27 = alloca ptr, align 8
  %28 = alloca ptr, align 8
  %29 = alloca ptr, align 8
  store ptr %0, ptr %9, align 8, !tbaa !4
  store ptr %1, ptr %10, align 8, !tbaa !36
  store ptr %2, ptr %11, align 8, !tbaa !36
  store ptr %3, ptr %12, align 8, !tbaa !36
  store float %4, ptr %13, align 4, !tbaa !90
  store i32 %5, ptr %14, align 4, !tbaa !32
  store i32 %6, ptr %15, align 4, !tbaa !32
  store i32 %7, ptr %16, align 4, !tbaa !32
  call void @llvm.lifetime.start.p0(i64 8, ptr %17) #10
  %30 = load ptr, ptr %9, align 8, !tbaa !4
  %31 = getelementptr inbounds nuw %struct.AVFilterContext, ptr %30, i32 0, i32 9
  %32 = load ptr, ptr %31, align 8, !tbaa !9
  store ptr %32, ptr %17, align 8, !tbaa !22
  call void @llvm.lifetime.start.p0(i64 4, ptr %18) #10
  %33 = load ptr, ptr %17, align 8, !tbaa !22
  %34 = getelementptr inbounds nuw %struct.XFadeContext, ptr %33, i32 0, i32 5
  %35 = load i32, ptr %34, align 8, !tbaa !82
  store i32 %35, ptr %18, align 4, !tbaa !32
  call void @llvm.lifetime.start.p0(i64 4, ptr %19) #10
  %36 = load ptr, ptr %12, align 8, !tbaa !36
  %37 = getelementptr inbounds nuw %struct.AVFrame, ptr %36, i32 0, i32 3
  %38 = load i32, ptr %37, align 8, !tbaa !92
  store i32 %38, ptr %19, align 4, !tbaa !32
  call void @llvm.lifetime.start.p0(i64 4, ptr %20) #10
  %39 = load i32, ptr %19, align 4, !tbaa !32
  %40 = sitofp i32 %39 to float
  store float %40, ptr %20, align 4, !tbaa !90
  call void @llvm.lifetime.start.p0(i64 4, ptr %21) #10
  %41 = load ptr, ptr %12, align 8, !tbaa !36
  %42 = getelementptr inbounds nuw %struct.AVFrame, ptr %41, i32 0, i32 4
  %43 = load i32, ptr %42, align 4, !tbaa !95
  %44 = sitofp i32 %43 to float
  store float %44, ptr %21, align 4, !tbaa !90
  call void @llvm.lifetime.start.p0(i64 4, ptr %22) #10
  %45 = load i32, ptr %14, align 4, !tbaa !32
  store i32 %45, ptr %22, align 4, !tbaa !32
  br label %46

46:                                               ; preds = %159, %8
  %47 = load i32, ptr %22, align 4, !tbaa !32
  %48 = load i32, ptr %15, align 4, !tbaa !32
  %49 = icmp slt i32 %47, %48
  br i1 %49, label %51, label %50

50:                                               ; preds = %46
  store i32 2, ptr %23, align 4
  call void @llvm.lifetime.end.p0(i64 4, ptr %22) #10
  br label %162

51:                                               ; preds = %46
  call void @llvm.lifetime.start.p0(i64 4, ptr %24) #10
  store i32 0, ptr %24, align 4, !tbaa !32
  br label %52

52:                                               ; preds = %155, %51
  %53 = load i32, ptr %24, align 4, !tbaa !32
  %54 = load i32, ptr %19, align 4, !tbaa !32
  %55 = icmp slt i32 %53, %54
  br i1 %55, label %57, label %56

56:                                               ; preds = %52
  store i32 5, ptr %23, align 4
  call void @llvm.lifetime.end.p0(i64 4, ptr %24) #10
  br label %158

57:                                               ; preds = %52
  call void @llvm.lifetime.start.p0(i64 4, ptr %25) #10
  %58 = load float, ptr %20, align 4, !tbaa !90
  %59 = fsub nsz float %58, 1.000000e+00
  %60 = load i32, ptr %24, align 4, !tbaa !32
  %61 = sitofp i32 %60 to float
  %62 = fsub nsz float %59, %61
  %63 = load float, ptr %20, align 4, !tbaa !90
  %64 = fdiv nsz float %62, %63
  %65 = load float, ptr %21, align 4, !tbaa !90
  %66 = fsub nsz float %65, 1.000000e+00
  %67 = load i32, ptr %22, align 4, !tbaa !32
  %68 = sitofp i32 %67 to float
  %69 = fsub nsz float %66, %68
  %70 = fmul nsz float %64, %69
  %71 = load float, ptr %21, align 4, !tbaa !90
  %72 = fdiv nsz float %70, %71
  %73 = fadd nsz float 1.000000e+00, %72
  %74 = load float, ptr %13, align 4, !tbaa !90
  %75 = fneg nsz float %74
  %76 = call nsz float @llvm.fmuladd.f32(float %75, float 2.000000e+00, float %73)
  store float %76, ptr %25, align 4, !tbaa !90
  call void @llvm.lifetime.start.p0(i64 4, ptr %26) #10
  store i32 0, ptr %26, align 4, !tbaa !32
  br label %77

77:                                               ; preds = %151, %57
  %78 = load i32, ptr %26, align 4, !tbaa !32
  %79 = load i32, ptr %18, align 4, !tbaa !32
  %80 = icmp slt i32 %78, %79
  br i1 %80, label %82, label %81

81:                                               ; preds = %77
  store i32 8, ptr %23, align 4
  call void @llvm.lifetime.end.p0(i64 4, ptr %26) #10
  br label %154

82:                                               ; preds = %77
  call void @llvm.lifetime.start.p0(i64 8, ptr %27) #10
  %83 = load ptr, ptr %10, align 8, !tbaa !36
  %84 = getelementptr inbounds nuw %struct.AVFrame, ptr %83, i32 0, i32 0
  %85 = load i32, ptr %26, align 4, !tbaa !32
  %86 = sext i32 %85 to i64
  %87 = getelementptr inbounds [8 x ptr], ptr %84, i64 0, i64 %86
  %88 = load ptr, ptr %87, align 8, !tbaa !96
  %89 = load i32, ptr %22, align 4, !tbaa !32
  %90 = load ptr, ptr %10, align 8, !tbaa !36
  %91 = getelementptr inbounds nuw %struct.AVFrame, ptr %90, i32 0, i32 1
  %92 = load i32, ptr %26, align 4, !tbaa !32
  %93 = sext i32 %92 to i64
  %94 = getelementptr inbounds [8 x i32], ptr %91, i64 0, i64 %93
  %95 = load i32, ptr %94, align 4, !tbaa !32
  %96 = mul nsw i32 %89, %95
  %97 = sext i32 %96 to i64
  %98 = getelementptr inbounds i8, ptr %88, i64 %97
  store ptr %98, ptr %27, align 8, !tbaa !96
  call void @llvm.lifetime.start.p0(i64 8, ptr %28) #10
  %99 = load ptr, ptr %11, align 8, !tbaa !36
  %100 = getelementptr inbounds nuw %struct.AVFrame, ptr %99, i32 0, i32 0
  %101 = load i32, ptr %26, align 4, !tbaa !32
  %102 = sext i32 %101 to i64
  %103 = getelementptr inbounds [8 x ptr], ptr %100, i64 0, i64 %102
  %104 = load ptr, ptr %103, align 8, !tbaa !96
  %105 = load i32, ptr %22, align 4, !tbaa !32
  %106 = load ptr, ptr %11, align 8, !tbaa !36
  %107 = getelementptr inbounds nuw %struct.AVFrame, ptr %106, i32 0, i32 1
  %108 = load i32, ptr %26, align 4, !tbaa !32
  %109 = sext i32 %108 to i64
  %110 = getelementptr inbounds [8 x i32], ptr %107, i64 0, i64 %109
  %111 = load i32, ptr %110, align 4, !tbaa !32
  %112 = mul nsw i32 %105, %111
  %113 = sext i32 %112 to i64
  %114 = getelementptr inbounds i8, ptr %104, i64 %113
  store ptr %114, ptr %28, align 8, !tbaa !96
  call void @llvm.lifetime.start.p0(i64 8, ptr %29) #10
  %115 = load ptr, ptr %12, align 8, !tbaa !36
  %116 = getelementptr inbounds nuw %struct.AVFrame, ptr %115, i32 0, i32 0
  %117 = load i32, ptr %26, align 4, !tbaa !32
  %118 = sext i32 %117 to i64
  %119 = getelementptr inbounds [8 x ptr], ptr %116, i64 0, i64 %118
  %120 = load ptr, ptr %119, align 8, !tbaa !96
  %121 = load i32, ptr %22, align 4, !tbaa !32
  %122 = load ptr, ptr %12, align 8, !tbaa !36
  %123 = getelementptr inbounds nuw %struct.AVFrame, ptr %122, i32 0, i32 1
  %124 = load i32, ptr %26, align 4, !tbaa !32
  %125 = sext i32 %124 to i64
  %126 = getelementptr inbounds [8 x i32], ptr %123, i64 0, i64 %125
  %127 = load i32, ptr %126, align 4, !tbaa !32
  %128 = mul nsw i32 %121, %127
  %129 = sext i32 %128 to i64
  %130 = getelementptr inbounds i8, ptr %120, i64 %129
  store ptr %130, ptr %29, align 8, !tbaa !96
  %131 = load ptr, ptr %28, align 8, !tbaa !96
  %132 = load i32, ptr %24, align 4, !tbaa !32
  %133 = sext i32 %132 to i64
  %134 = getelementptr inbounds i8, ptr %131, i64 %133
  %135 = load i8, ptr %134, align 1, !tbaa !97
  %136 = uitofp i8 %135 to float
  %137 = load ptr, ptr %27, align 8, !tbaa !96
  %138 = load i32, ptr %24, align 4, !tbaa !32
  %139 = sext i32 %138 to i64
  %140 = getelementptr inbounds i8, ptr %137, i64 %139
  %141 = load i8, ptr %140, align 1, !tbaa !97
  %142 = uitofp i8 %141 to float
  %143 = load float, ptr %25, align 4, !tbaa !90
  %144 = call nsz float @smoothstep(float noundef 0.000000e+00, float noundef 1.000000e+00, float noundef %143)
  %145 = call nsz float @mix(float noundef %136, float noundef %142, float noundef %144)
  %146 = fptoui float %145 to i8
  %147 = load ptr, ptr %29, align 8, !tbaa !96
  %148 = load i32, ptr %24, align 4, !tbaa !32
  %149 = sext i32 %148 to i64
  %150 = getelementptr inbounds i8, ptr %147, i64 %149
  store i8 %146, ptr %150, align 1, !tbaa !97
  call void @llvm.lifetime.end.p0(i64 8, ptr %29) #10
  call void @llvm.lifetime.end.p0(i64 8, ptr %28) #10
  call void @llvm.lifetime.end.p0(i64 8, ptr %27) #10
  br label %151

151:                                              ; preds = %82
  %152 = load i32, ptr %26, align 4, !tbaa !32
  %153 = add nsw i32 %152, 1
  store i32 %153, ptr %26, align 4, !tbaa !32
  br label %77, !llvm.loop !288

154:                                              ; preds = %81
  call void @llvm.lifetime.end.p0(i64 4, ptr %25) #10
  br label %155

155:                                              ; preds = %154
  %156 = load i32, ptr %24, align 4, !tbaa !32
  %157 = add nsw i32 %156, 1
  store i32 %157, ptr %24, align 4, !tbaa !32
  br label %52, !llvm.loop !289

158:                                              ; preds = %56
  br label %159

159:                                              ; preds = %158
  %160 = load i32, ptr %22, align 4, !tbaa !32
  %161 = add nsw i32 %160, 1
  store i32 %161, ptr %22, align 4, !tbaa !32
  br label %46, !llvm.loop !290

162:                                              ; preds = %50
  call void @llvm.lifetime.end.p0(i64 4, ptr %21) #10
  call void @llvm.lifetime.end.p0(i64 4, ptr %20) #10
  call void @llvm.lifetime.end.p0(i64 4, ptr %19) #10
  call void @llvm.lifetime.end.p0(i64 4, ptr %18) #10
  call void @llvm.lifetime.end.p0(i64 8, ptr %17) #10
  ret void
}