; Function Attrs: nofree norecurse nosync nounwind memory(readwrite, inaccessiblemem: none) uwtable
define internal void @diagbr8_transition(ptr noundef readonly captures(none) %0, ptr noundef readonly captures(none) %1, ptr noundef readonly captures(none) %2, ptr noundef readonly captures(none) %3, float noundef %4, i32 noundef %5, i32 noundef %6, i32 %7) #6 {
  %9 = getelementptr inbounds nuw i8, ptr %0, i64 72
  %10 = load ptr, ptr %9, align 8, !tbaa !4
  %11 = getelementptr inbounds nuw i8, ptr %10, i64 40
  %12 = load i32, ptr %11, align 8, !tbaa !77
  %13 = getelementptr inbounds nuw i8, ptr %3, i64 104
  %14 = load i32, ptr %13, align 8, !tbaa !85
  %15 = sitofp i32 %14 to float
  %16 = getelementptr inbounds nuw i8, ptr %3, i64 108
  %17 = load i32, ptr %16, align 4, !tbaa !88
  %18 = sitofp i32 %17 to float
  %19 = icmp slt i32 %5, %6
  br i1 %19, label %.preheader.lr.ph, label %._crit_edge

.preheader.lr.ph:                                 ; preds = %8
  %20 = icmp sgt i32 %14, 0
  %21 = fadd nsz float %15, -1.000000e+00
  %22 = fadd nsz float %18, -1.000000e+00
  %23 = fneg nsz float %4
  %24 = getelementptr inbounds nuw i8, ptr %1, i64 64
  %25 = getelementptr inbounds nuw i8, ptr %2, i64 64
  %26 = getelementptr inbounds nuw i8, ptr %3, i64 64
  %27 = icmp sgt i32 %12, 0
  %or.cond = select i1 %20, i1 %27, i1 false
  br i1 %or.cond, label %.preheader.us.us.preheader, label %._crit_edge

.preheader.us.us.preheader:                       ; preds = %.preheader.lr.ph
  %wide.trip.count60 = zext nneg i32 %14 to i64
  %wide.trip.count = zext nneg i32 %12 to i64
  br label %.preheader.us.us

.preheader.us.us:                                 ; preds = %.preheader.us.us.preheader, %._crit_edge48.split.us.us.us
  %.049.us.us = phi i32 [ %77, %._crit_edge48.split.us.us.us ], [ %5, %.preheader.us.us.preheader ]
  %28 = sitofp i32 %.049.us.us to float
  %29 = fsub nsz float %22, %28
  br label %.lr.ph.us.us.us

.lr.ph.us.us.us:                                  ; preds = %._crit_edge.us.us.us, %.preheader.us.us
  %indvars.iv57 = phi i64 [ %indvars.iv.next58, %._crit_edge.us.us.us ], [ 0, %.preheader.us.us ]
  %30 = trunc nuw nsw i64 %indvars.iv57 to i32
  %31 = uitofp nneg i32 %30 to float
  %32 = fsub nsz float %21, %31
  %33 = fdiv nsz float %32, %15
  %34 = fmul nsz float %29, %33
  %35 = fdiv nsz float %34, %18
  %36 = fadd nsz float %35, 1.000000e+00
  %37 = tail call nsz float @llvm.fmuladd.f32(float %23, float 2.000000e+00, float %36)
  %38 = fcmp nsz ogt float %37, 0.000000e+00
  %39 = select nsz i1 %38, float %37, float 0.000000e+00
  %40 = fcmp nsz ogt float %39, 1.000000e+00
  %..i.i.us.us.us = select nsz i1 %40, float 1.000000e+00, float %39
  %41 = fmul nsz float %..i.i.us.us.us, %..i.i.us.us.us
  %42 = tail call nsz float @llvm.fmuladd.f32(float %..i.i.us.us.us, float -2.000000e+00, float 3.000000e+00)
  %43 = fmul nsz float %41, %42
  %44 = fsub nsz float 1.000000e+00, %43
  br label %45

45:                                               ; preds = %45, %.lr.ph.us.us.us
  %indvars.iv = phi i64 [ %indvars.iv.next, %45 ], [ 0, %.lr.ph.us.us.us ]
  %46 = getelementptr inbounds nuw [8 x ptr], ptr %1, i64 0, i64 %indvars.iv
  %47 = load ptr, ptr %46, align 8, !tbaa !89
  %48 = getelementptr inbounds nuw [8 x i32], ptr %24, i64 0, i64 %indvars.iv
  %49 = load i32, ptr %48, align 4, !tbaa !31
  %50 = mul nsw i32 %49, %.049.us.us
  %51 = sext i32 %50 to i64
  %52 = getelementptr inbounds i8, ptr %47, i64 %51
  %53 = getelementptr inbounds nuw [8 x ptr], ptr %2, i64 0, i64 %indvars.iv
  %54 = load ptr, ptr %53, align 8, !tbaa !89
  %55 = getelementptr inbounds nuw [8 x i32], ptr %25, i64 0, i64 %indvars.iv
  %56 = load i32, ptr %55, align 4, !tbaa !31
  %57 = mul nsw i32 %56, %.049.us.us
  %58 = sext i32 %57 to i64
  %59 = getelementptr inbounds i8, ptr %54, i64 %58
  %60 = getelementptr inbounds nuw [8 x ptr], ptr %3, i64 0, i64 %indvars.iv
  %61 = load ptr, ptr %60, align 8, !tbaa !89
  %62 = getelementptr inbounds nuw [8 x i32], ptr %26, i64 0, i64 %indvars.iv
  %63 = load i32, ptr %62, align 4, !tbaa !31
  %64 = mul nsw i32 %63, %.049.us.us
  %65 = sext i32 %64 to i64
  %66 = getelementptr inbounds i8, ptr %61, i64 %65
  %67 = getelementptr inbounds nuw i8, ptr %59, i64 %indvars.iv57
  %68 = load i8, ptr %67, align 1, !tbaa !90
  %69 = uitofp i8 %68 to float
  %70 = getelementptr inbounds nuw i8, ptr %52, i64 %indvars.iv57
  %71 = load i8, ptr %70, align 1, !tbaa !90
  %72 = uitofp i8 %71 to float
  %73 = fmul nsz float %44, %72
  %74 = tail call nsz noundef float @llvm.fmuladd.f32(float %69, float %43, float %73)
  %75 = fptoui float %74 to i8
  %76 = getelementptr inbounds nuw i8, ptr %66, i64 %indvars.iv57
  store i8 %75, ptr %76, align 1, !tbaa !90
  %indvars.iv.next = add nuw nsw i64 %indvars.iv, 1
  %exitcond.not = icmp eq i64 %indvars.iv.next, %wide.trip.count
  br i1 %exitcond.not, label %._crit_edge.us.us.us, label %45, !llvm.loop !280

._crit_edge.us.us.us:                             ; preds = %45
  %indvars.iv.next58 = add nuw nsw i64 %indvars.iv57, 1
  %exitcond61.not = icmp eq i64 %indvars.iv.next58, %wide.trip.count60
  br i1 %exitcond61.not, label %._crit_edge48.split.us.us.us, label %.lr.ph.us.us.us, !llvm.loop !281

._crit_edge48.split.us.us.us:                     ; preds = %._crit_edge.us.us.us
  %77 = add nsw i32 %.049.us.us, 1
  %exitcond62.not = icmp eq i32 %77, %6
  br i1 %exitcond62.not, label %._crit_edge, label %.preheader.us.us, !llvm.loop !282

._crit_edge:                                      ; preds = %._crit_edge48.split.us.us.us, %.preheader.lr.ph, %8
  ret void
}